(dp0
S'95q'
p1
I215862
sS'99c'
p2
I163099
sS'9q'
p3
I185059
sS'9r'
p4
I477976
sS'955'
p5
I104614
sS'956'
p6
I114185
sS'5'
p7
I133
sS'4'
p8
I428
sS'9'
p9
I3602721
sS'99'
p10
I427601
sS'ff'
p11
I119335
sS'95'
p12
I1106657
sS'94'
p13
I835694
sS'97'
p14
I197604
sS'96'
p15
I253484
sS'b'
p16
I527
sS'f'
p17
I120105
sS'i'
p18
I15
sS'm'
p19
I168620
sS'o'
p20
I1132
sS'9rg'
p21
I106993
sS'mt'
p22
I168546
sS't'
p23
I16211
sS'v'
p24
I83
s.